target datalayout = "e-m:e-p270:32:32-p271:32:32-p272:64:64-i64:64-i128:128-f80:128-n8:16:32:64-S128"
target triple = "x86_64-pc-linux-gnu"

%struct.AVTextFormatContext = type { ptr, ptr, ptr, ptr, ptr, ptr, i32, i32, [12 x i32], [12 x [100 x i32]], [12 x ptr], [12 x %struct.AVBPrint], i32, i32, i32, i32, i32, ptr, i32, ptr, i32 }
%struct.AVBPrint = type { ptr, i32, i32, i32, [1 x i8], [1000 x i8] }
%struct.MermaidContext = type { ptr, ptr, i32, i32, i32, i32, i32, [12 x %struct.section_data], [12 x i32], [12 x %struct.AVBPrint], %struct.AVBPrint, ptr }
%struct.section_data = type { ptr, ptr, ptr, ptr, i32, i32, i32, i32 }

@.str.50 = private unnamed_addr constant [7 x i8] c"%s--%s\00", align 1

; Function Attrs: cold nounwind optsize uwtable
define internal i32 @has_link_pair(ptr noundef %0, ptr noundef %1, ptr noundef %2) #2 {
  %4 = alloca i32, align 4
  %5 = alloca ptr, align 8
  %6 = alloca ptr, align 8
  %7 = alloca ptr, align 8
  %8 = alloca ptr, align 8
  %9 = alloca %struct.AVBPrint, align 8
  %10 = alloca i32, align 4
  store ptr %0, ptr %5, align 8, !tbaa !4
  store ptr %1, ptr %6, align 8, !tbaa !35
  store ptr %2, ptr %7, align 8, !tbaa !35
  call void @llvm.lifetime.start.p0(i64 8, ptr %8) #8
  %11 = load ptr, ptr %5, align 8, !tbaa !4
  %12 = getelementptr inbounds nuw %struct.AVTextFormatContext, ptr %11, i32 0, i32 4
  %13 = load ptr, ptr %12, align 8, !tbaa !11
  store ptr %13, ptr %8, align 8, !tbaa !20
  call void @llvm.lifetime.start.p0(i64 1024, ptr %9) #8
  call void @av_bprint_init(ptr noundef %9, i32 noundef 0, i32 noundef -1)
  %14 = load ptr, ptr %6, align 8, !tbaa !35
  %15 = load ptr, ptr %7, align 8, !tbaa !35
  call void (ptr, ptr, ...) @av_bprintf(ptr noundef %9, ptr noundef @.str.50, ptr noundef %14, ptr noundef %15)
  %16 = load ptr, ptr %8, align 8, !tbaa !20
  %17 = getelementptr inbounds nuw %struct.MermaidContext, ptr %16, i32 0, i32 11
  %18 = load ptr, ptr %17, align 8, !tbaa !77
  %19 = icmp ne ptr %18, null
  br i1 %19, label %20, label %29

20:                                               ; preds = %3
  %21 = load ptr, ptr %8, align 8, !tbaa !20
  %22 = getelementptr inbounds nuw %struct.MermaidContext, ptr %21, i32 0, i32 11
  %23 = load ptr, ptr %22, align 8, !tbaa !77
  %24 = getelementptr inbounds nuw %struct.AVBPrint, ptr %9, i32 0, i32 0
  %25 = load ptr, ptr %24, align 8, !tbaa !37
  %26 = call ptr @av_dict_get(ptr noundef %23, ptr noundef %25, ptr noundef null, i32 noundef 0)
  %27 = icmp ne ptr %26, null
  br i1 %27, label %28, label %29

28:                                               ; preds = %20
  store i32 1, ptr %4, align 4
  store i32 1, ptr %10, align 4
  br label %37

29:                                               ; preds = %20, %3
  %30 = load ptr, ptr %8, align 8, !tbaa !20
  %31 = getelementptr inbounds nuw %struct.MermaidContext, ptr %30, i32 0, i32 11
  %32 = getelementptr inbounds nuw %struct.AVBPrint, ptr %9, i32 0, i32 0
  %33 = load ptr, ptr %32, align 8, !tbaa !37
  %34 = getelementptr inbounds nuw %struct.AVBPrint, ptr %9, i32 0, i32 0
  %35 = load ptr, ptr %34, align 8, !tbaa !37
  %36 = call i32 @av_dict_set(ptr noundef %31, ptr noundef %33, ptr noundef %35, i32 noundef 0)
  store i32 0, ptr %4, align 4
  store i32 1, ptr %10, align 4
  br label %37

37:                                               ; preds = %29, %28
  call void @llvm.lifetime.end.p0(i64 1024, ptr %9) #8
  call void @llvm.lifetime.end.p0(i64 8, ptr %8) #8
  %38 = load i32, ptr %4, align 4
  ret i32 %38
}