; Function Attrs: cold nounwind optsize uwtable
define internal fastcc range(i32 0, 2) i32 @has_link_pair(ptr %.32.val, ptr noundef nonnull %0, ptr noundef nonnull %1) unnamed_addr #2 {
  %3 = alloca %struct.AVBPrint, align 8
  call void @llvm.lifetime.start.p0(i64 1024, ptr nonnull %3) #10
  call void @av_bprint_init(ptr noundef nonnull %3, i32 noundef 0, i32 noundef -1) #10
  call void (ptr, ptr, ...) @av_bprintf(ptr noundef nonnull %3, ptr noundef nonnull @.str.50, ptr noundef nonnull %0, ptr noundef nonnull %1) #10
  %4 = getelementptr inbounds nuw i8, ptr %.32.val, i64 13976
  %5 = load ptr, ptr %4, align 8, !tbaa !61
  %.not = icmp eq ptr %5, null
  br i1 %.not, label %9, label %6

6:                                                ; preds = %2
  %7 = load ptr, ptr %3, align 8, !tbaa !27
  %8 = call ptr @av_dict_get(ptr noundef nonnull %5, ptr noundef %7, ptr noundef null, i32 noundef 0) #10
  %.not7 = icmp eq ptr %8, null
  br i1 %.not7, label %9, label %12

9:                                                ; preds = %6, %2
  %10 = load ptr, ptr %3, align 8, !tbaa !27
  %11 = call i32 @av_dict_set(ptr noundef nonnull %4, ptr noundef %10, ptr noundef %10, i32 noundef 0) #10
  br label %12

12:                                               ; preds = %6, %9
  %.0 = phi i32 [ 0, %9 ], [ 1, %6 ]
  call void @llvm.lifetime.end.p0(i64 1024, ptr nonnull %3) #10
  ret i32 %.0
}